(dp1
S'edges'
p2
ccollections
defaultdict
p3
(c__builtin__
list
p4
tRp5
I0
(lp6
I0
aI0
aI1
aI2
aI1
aI2
asI1
(lp7
I0
aI0
aI1
aI1
aI2
aI3
aI5
aI7
aI2
aI3
aI5
aI7
asI2
(lp8
I0
aI1
aI0
aI1
aI2
aI2
asI3
(lp9
I1
aI1
aI3
aI3
aI5
aI7
aI5
aI7
asI4
(lp10
I4
aI4
aI5
aI6
aI5
aI6
asI5
(lp11
I1
aI3
aI4
aI1
aI3
aI4
aI5
aI5
aI6
aI7
aI6
aI7
asI6
(lp12
I4
aI5
aI4
aI5
aI6
aI6
asI7
(lp13
I1
aI3
aI5
aI1
aI3
aI5
aI7
aI7
assS'vertices'
p14
(lp15
cnumpy.core.multiarray
_reconstruct
p16
(cnumpy
ndarray
p17
(I0
tS'b'
tRp18
(I1
(I2
tcnumpy
dtype
p19
(S'f8'
I0
I1
tRp20
(I3
S'<'
NNNI-1
I-1
I0
tbI00
S'333333\xd3\xbf\x9a\x99\x99\x99\x99\x99\xa9\xbf'
tbag16
(g17
(I0
tS'b'
tRp21
(I1
(I2
tg20
I00
S'\x00\x00\x00\x00\x00\x00\x00\x00\x9a\x99\x99\x99\x99\x99\xa9\xbf'
tbag16
(g17
(I0
tS'b'
tRp22
(I1
(I2
tg20
I00
S'333333\xd3?\x9a\x99\x99\x99\x99\x99\xa9\xbf'
tbag16
(g17
(I0
tS'b'
tRp23
(I1
(I2
tg20
I00
S'\x00\x00\x00\x00\x00\x00\x00\x00\x9a\x99\x99\x99\x99\x99\xb9?'
tbag16
(g17
(I0
tS'b'
tRp24
(I1
(I2
tg20
I00
S'333333\xd3\xbfffffff\xd6?'
tbag16
(g17
(I0
tS'b'
tRp25
(I1
(I2
tg20
I00
S'\x00\x00\x00\x00\x00\x00\x00\x00ffffff\xd6?'
tbag16
(g17
(I0
tS'b'
tRp26
(I1
(I2
tg20
I00
S'333333\xd3?ffffff\xd6?'
tbag16
(g17
(I0
tS'b'
tRp27
(I1
(I2
tg20
I00
S'\x00\x00\x00\x00\x00\x00\x00\x00\x9a\x99\x99\x99\x99\x99\xc9?'
tbas.